(dp0
Vhotel_continent
p1
cnumpy
uint8
p2
sVsrch_children_cnt
p3
g2
sVsrch_destination_id
p4
cnumpy
uint16
p5
sVuser_id
p6
cnumpy
uint32
p7
sVuser_location_country
p8
g2
sVsite_name
p9
g2
sVis_booking
p10
cnumpy
bool_
p11
sS'cnt'
p12
g5
sVsrch_adults_cnt
p13
g2
sVhotel_cluster
p14
g2
sVsrch_destination_type_id
p15
g2
sVis_package
p16
g11
sVis_mobile
p17
g11
sVsrch_rm_cnt
p18
g2
sVhotel_country
p19
g2
sVposa_continent
p20
g2
sVuser_location_city
p21
g5
sVuser_location_region
p22
g5
sVchannel
p23
g2
sVhotel_market
p24
g5
s.